; Function Attrs: nounwind uwtable
define internal fastcc range(i32 -1, 2) i32 @call_orderTM(ptr noundef %0, ptr noundef %1, ptr noundef %2, i32 noundef range(i32 13, 15) %3) unnamed_addr #0 {
  %5 = tail call ptr @luaT_gettmbyobj(ptr noundef %0, ptr noundef %1, i32 noundef %3) #9
  %6 = getelementptr inbounds nuw i8, ptr %5, i64 8
  %7 = load i32, ptr %6, align 8, !tbaa !4
  %8 = icmp eq i32 %7, 0
  br i1 %8, label %60, label %9

9:                                                ; preds = %4
  %10 = tail call ptr @luaT_gettmbyobj(ptr noundef %0, ptr noundef %2, i32 noundef %3) #9
  %11 = tail call i32 @luaO_rawequalObj(ptr noundef nonnull %5, ptr noundef %10) #9
  %.not = icmp eq i32 %11, 0
  br i1 %.not, label %60, label %12

12:                                               ; preds = %9
  %13 = getelementptr inbounds nuw i8, ptr %0, i64 16
  %14 = load ptr, ptr %13, align 8, !tbaa !33
  %15 = getelementptr inbounds nuw i8, ptr %0, i64 64
  %16 = load ptr, ptr %15, align 8, !tbaa !32
  %17 = load i64, ptr %5, align 8, !tbaa !9
  store i64 %17, ptr %14, align 8, !tbaa !9
  %18 = load i32, ptr %6, align 8, !tbaa !4
  %19 = getelementptr inbounds nuw i8, ptr %14, i64 8
  store i32 %18, ptr %19, align 8, !tbaa !4
  %20 = load ptr, ptr %13, align 8, !tbaa !33
  %21 = getelementptr inbounds nuw i8, ptr %20, i64 16
  %22 = load i64, ptr %1, align 8, !tbaa !9
  store i64 %22, ptr %21, align 8, !tbaa !9
  %23 = getelementptr inbounds nuw i8, ptr %1, i64 8
  %24 = load i32, ptr %23, align 8, !tbaa !4
  %25 = getelementptr inbounds nuw i8, ptr %20, i64 24
  store i32 %24, ptr %25, align 8, !tbaa !4
  %26 = load ptr, ptr %13, align 8, !tbaa !33
  %27 = getelementptr inbounds nuw i8, ptr %26, i64 32
  %28 = load i64, ptr %2, align 8, !tbaa !9
  store i64 %28, ptr %27, align 8, !tbaa !9
  %29 = getelementptr inbounds nuw i8, ptr %2, i64 8
  %30 = load i32, ptr %29, align 8, !tbaa !4
  %31 = getelementptr inbounds nuw i8, ptr %26, i64 40
  store i32 %30, ptr %31, align 8, !tbaa !4
  %32 = getelementptr inbounds nuw i8, ptr %0, i64 56
  %33 = load ptr, ptr %32, align 8, !tbaa !34
  %34 = load ptr, ptr %13, align 8, !tbaa !33
  %35 = ptrtoint ptr %33 to i64
  %36 = ptrtoint ptr %34 to i64
  %37 = sub i64 %35, %36
  %38 = icmp slt i64 %37, 49
  br i1 %38, label %39, label %callTMres.exit

39:                                               ; preds = %12
  tail call void @luaD_growstack(ptr noundef nonnull %0, i32 noundef 3) #9
  %.pre.i = load ptr, ptr %13, align 8, !tbaa !33
  br label %callTMres.exit

callTMres.exit:                                   ; preds = %12, %39
  %40 = phi ptr [ %34, %12 ], [ %.pre.i, %39 ]
  %41 = ptrtoint ptr %14 to i64
  %42 = ptrtoint ptr %16 to i64
  %43 = sub i64 %41, %42
  %44 = getelementptr inbounds nuw i8, ptr %40, i64 48
  store ptr %44, ptr %13, align 8, !tbaa !33
  tail call void @luaD_call(ptr noundef nonnull %0, ptr noundef %40, i32 noundef 1) #9
  %45 = load ptr, ptr %15, align 8, !tbaa !32
  %46 = getelementptr inbounds i8, ptr %45, i64 %43
  %47 = load ptr, ptr %13, align 8, !tbaa !33
  %48 = getelementptr inbounds i8, ptr %47, i64 -16
  store ptr %48, ptr %13, align 8, !tbaa !33
  %49 = load i64, ptr %48, align 8, !tbaa !9
  store i64 %49, ptr %46, align 8, !tbaa !9
  %50 = getelementptr inbounds i8, ptr %47, i64 -8
  %51 = load i32, ptr %50, align 8, !tbaa !4
  %52 = getelementptr inbounds nuw i8, ptr %46, i64 8
  store i32 %51, ptr %52, align 8, !tbaa !4
  %53 = load ptr, ptr %13, align 8, !tbaa !33
  %54 = getelementptr inbounds nuw i8, ptr %53, i64 8
  %55 = load i32, ptr %54, align 8, !tbaa !4
  switch i32 %55, label %.fold.split [
    i32 0, label %60
    i32 1, label %56
  ]

56:                                               ; preds = %callTMres.exit
  %57 = load i32, ptr %53, align 8, !tbaa !9
  %58 = icmp ne i32 %57, 0
  %59 = zext i1 %58 to i32
  br label %60

.fold.split:                                      ; preds = %callTMres.exit
  br label %60

60:                                               ; preds = %56, %.fold.split, %callTMres.exit, %9, %4
  %.0 = phi i32 [ -1, %4 ], [ -1, %9 ], [ %55, %callTMres.exit ], [ %59, %56 ], [ 1, %.fold.split ]
  ret i32 %.0
}